(dp0
S'class_sl'
p1
(dp2
S'C'
p3
(I0
I6
tp4
sS'N'
p5
(I6
I12
tp6
ssS'class_hierarchy'
p7
(dp8
g3
(lp9
S'C_subcl'
p10
asg5
(lp11
S'N_subcl'
p12
assS'feats'
p13
(dp14
S'k__Bacteria.p__Firmicutes.c__Clostridia.o__Clostridiales'
p15
(lp16
F64048.99999999999
aF0.0
aF0.0
aF0.0
aF0.0
aF4040.1
aF0.0
aF0.0
aF0.0
aF0.0
aF0.0
aF0.0
asS'k__Bacteria.p__Proteobacteria.c__Betaproteobacteria.o__Burkholderiales.f__Burkholderiaceae.g__Lautropia'
p17
(lp18
F0.0
aF0.0
aF0.0
aF0.0
aF0.0
aF0.0
aF0.0
aF112036.5
aF0.0
aF0.0
aF0.0
aF0.0
asS'k__Bacteria.p__Fusobacteria.c__Fusobacteriia.o__Fusobacteriales.f__Leptotrichiaceae.g__Leptotrichia'
p19
(lp20
F0.0
aF0.0
aF39149.9
aF16487.7
aF25112.5
aF0.0
aF0.0
aF30012.1
aF8241.5
aF851.6
aF0.0
aF20691.1
asS'k__Bacteria.p__Bacteroidetes.c__Bacteroidia.o__Bacteroidales.f__Prevotellaceae.g__Alloprevotella'
p21
(lp22
F141748.6
aF0.0
aF0.0
aF0.0
aF0.0
aF0.0
aF18750.4
aF0.0
aF0.0
aF0.0
aF0.0
aF0.0
asS'k__Bacteria.p__Firmicutes.c__Bacilli.o__Lactobacillales.f__Streptococcaceae.g__Streptococcus.s__Streptococcus_parasanguinis'
p23
(lp24
F0.0
aF0.0
aF0.0
aF32047.1
aF0.0
aF5587.7
aF0.0
aF0.0
aF0.0
aF27376.5
aF9873.2
aF0.0
asS'k__Bacteria.p__Firmicutes.c__Bacilli.o__Bacillales.f__Bacillales_unclassified.g__Gemella.s__Gemella_haemolysans'
p25
(lp26
F0.0
aF0.0
aF0.0
aF102122.2
aF0.0
aF0.0
aF0.0
aF0.0
aF0.0
aF204953.7
aF0.0
aF35096.3
asS'k__Bacteria.p__Firmicutes.c__Bacilli.o__Lactobacillales.f__Carnobacteriaceae.g__Granulicatella'
p27
(lp28
F0.0
aF0.0
aF0.0
aF0.0
aF35851.9
aF0.0
aF0.0
aF0.0
aF0.0
aF0.0
aF0.0
aF0.0
asS'k__Bacteria.p__Actinobacteria.c__Actinobacteria.o__Actinomycetales.f__Actinomycetaceae'
p29
(lp30
F0.0
aF0.0
aF0.0
aF0.0
aF0.0
aF0.0
aF0.0
aF34797.5
aF0.0
aF0.0
aF2440.2
aF0.0
asS'k__Bacteria.p__Fusobacteria.c__Fusobacteriia.o__Fusobacteriales.f__Fusobacteriaceae.g__Fusobacterium.s__Fusobacterium_nucleatum'
p31
(lp32
F111453.9
aF0.0
aF173498.4
aF0.0
aF186716.6
aF8802.6
aF14155.9
aF0.0
aF0.0
aF0.0
aF0.0
aF81325.7
asS'k__Bacteria.p__Firmicutes.c__Tissierellia'
p33
(lp34
F14041.3
aF0.0
aF0.0
aF0.0
aF0.0
aF0.0
aF0.0
aF0.0
aF0.0
aF0.0
aF0.0
aF0.0
asS'k__Bacteria.p__Firmicutes.c__Bacilli.o__Lactobacillales.f__Streptococcaceae.g__Streptococcus.s__Streptococcus_sp_A12'
p35
(lp36
F0.0
aF0.0
aF0.0
aF0.0
aF0.0
aF0.0
aF0.0
aF0.0
aF30164.9
aF0.0
aF0.0
aF0.0
asS'k__Bacteria.p__Proteobacteria.c__Betaproteobacteria.o__Neisseriales.f__Neisseriaceae.g__Neisseria'
p37
(lp38
F0.0
aF0.0
aF209780.8
aF412134.8
aF0.0
aF0.0
aF61023.7
aF0.0
aF393737.9
aF241533.4
aF248861.6
aF47566.3
asS'k__Bacteria.p__Proteobacteria.c__Gammaproteobacteria.o__Pasteurellales.f__Pasteurellaceae.g__Aggregatibacter'
p39
(lp40
F0.0
aF0.0
aF0.0
aF0.0
aF386791.0999999999
aF0.0
aF35137.6
aF0.0
aF0.0
aF0.0
aF0.0
aF17780.3
asS'k__Bacteria.p__Bacteroidetes.c__Bacteroidia.o__Bacteroidales'
p41
(lp42
F369395.6
aF30093.7
aF70543.5
aF23745.4
aF11232.4
aF629537.7
aF132472.2
aF104942.1
aF0.0
aF1466.1
aF0.0
aF269180.4
asS'k__Bacteria.p__Actinobacteria.c__Actinobacteria.o__Micrococcales.f__Micrococcaceae.g__Rothia.s__Rothia_mucilaginosa'
p43
(lp44
F0.0
aF0.0
aF0.0
aF49935.0
aF0.0
aF0.0
aF0.0
aF0.0
aF129559.9
aF44837.9
aF399078.2
aF0.0
asS'k__Bacteria.p__Actinobacteria.c__Actinobacteria.o__Actinomycetales.f__Actinomycetaceae.g__Actinomyces'
p45
(lp46
F0.0
aF0.0
aF0.0
aF0.0
aF0.0
aF0.0
aF0.0
aF34797.5
aF0.0
aF0.0
aF2440.2
aF0.0
asS'k__Bacteria.p__Firmicutes.c__Clostridia.o__Clostridiales.f__Clostridiales_Family_XIII_Incertae_Sedis'
p47
(lp48
F0.0
aF0.0
aF0.0
aF0.0
aF0.0
aF4040.1
aF0.0
aF0.0
aF0.0
aF0.0
aF0.0
aF0.0
asS'k__Bacteria.p__Fusobacteria.c__Fusobacteriia'
p49
(lp50
F111453.9
aF0.0
aF382274.3
aF110977.6
aF211829.1
aF8802.6
aF46156.8
aF30012.1
aF36150.4
aF46778.3
aF5939.2
aF102016.8
asS'k__Bacteria.p__Proteobacteria.c__Betaproteobacteria.o__Neisseriales.f__Neisseriaceae.g__Neisseria.s__Neisseria_flavescens'
p51
(lp52
F0.0
aF0.0
aF209780.8
aF344188.3
aF0.0
aF0.0
aF0.0
aF0.0
aF365094.1
aF214894.0
aF114415.6
aF0.0
asS'k__Bacteria.p__Proteobacteria.c__Gammaproteobacteria.o__Pasteurellales.f__Pasteurellaceae.g__Aggregatibacter.s__Aggregatibacter_segnis'
p53
(lp54
F0.0
aF0.0
aF0.0
aF0.0
aF386791.0999999999
aF0.0
aF35137.6
aF0.0
aF0.0
aF0.0
aF0.0
aF0.0
asS'k__Bacteria.p__Actinobacteria.c__Actinobacteria.o__Micrococcales.f__Micrococcaceae'
p55
(lp56
F0.0
aF0.0
aF0.0
aF49935.0
aF0.0
aF0.0
aF0.0
aF8142.099999999999
aF129559.9
aF44837.9
aF399078.2
aF0.0
asS'k__Bacteria.p__Proteobacteria.c__Gammaproteobacteria.o__Pasteurellales.f__Pasteurellaceae.g__Haemophilus.s__Haemophilus_parainfluenzae'
p57
(lp58
F0.0
aF0.0
aF45912.7
aF34475.5
aF0.0
aF31418.9
aF0.0
aF186626.89999999997
aF47508.0
aF32785.7
aF172790.80000000002
aF24503.2
asS'k__Bacteria.p__Firmicutes.c__Clostridia.o__Clostridiales.f__Clostridiales_Family_XIII_Incertae_Sedis.g__Clostridiales_Family_XIII_Incertae_Sedis_unclassified'
p59
(lp60
F0.0
aF0.0
aF0.0
aF0.0
aF0.0
aF4040.1
aF0.0
aF0.0
aF0.0
aF0.0
aF0.0
aF0.0
asS'k__Bacteria.p__Firmicutes.c__Bacilli.o__Bacillales.f__Bacillales_unclassified.g__Gemella.s__Gemella_morbillorum'
p61
(lp62
F39609.1
aF0.0
aF0.0
aF0.0
aF0.0
aF0.0
aF41714.7
aF0.0
aF0.0
aF0.0
aF0.0
aF0.0
asS'k__Bacteria.p__Firmicutes.c__Bacilli.o__Lactobacillales.f__Streptococcaceae'
p63
(lp64
F0.0
aF0.0
aF0.0
aF53718.3
aF0.0
aF6632.3
aF469668.0
aF148029.9
aF198101.6
aF99361.6
aF35658.6
aF85569.1
asS'k__Bacteria.p__Bacteroidetes.c__Flavobacteriia.o__Flavobacteriales.f__Flavobacteriaceae'
p65
(lp66
F375274.5
aF0.0
aF0.0
aF0.0
aF333171.70000000007
aF0.0
aF213827.1
aF0.0
aF0.0
aF0.0
aF0.0
aF12409.5
asS'k__Bacteria.p__Firmicutes.c__Negativicutes.o__Veillonellales.f__Veillonellaceae.g__Veillonella'
p67
(lp68
F0.0
aF0.0
aF0.0
aF20028.599999999995
aF0.0
aF291231.7
aF0.0
aF88905.7
aF1665.8
aF3947.2
aF105268.3
aF214228.6
asS'k__Bacteria.p__Bacteroidetes.c__Bacteroidia.o__Bacteroidales.f__Prevotellaceae.g__Prevotella.s__Prevotella_pallens'
p69
(lp70
F0.0
aF0.0
aF0.0
aF0.0
aF0.0
aF12273.199999999999
aF0.0
aF0.0
aF0.0
aF0.0
aF0.0
aF0.0
asS'k__Bacteria.p__Firmicutes.c__Erysipelotrichia.o__Erysipelotrichales.f__Erysipelotrichaceae.g__Solobacterium.s__Solobacterium_moorei'
p71
(lp72
F24052.8
aF0.0
aF0.0
aF0.0
aF0.0
aF0.0
aF0.0
aF0.0
aF0.0
aF0.0
aF0.0
aF0.0
asS'k__Bacteria.p__Actinobacteria.c__Actinobacteria.o__Corynebacteriales.f__Corynebacteriaceae'
p73
(lp74
F0.0
aF0.0
aF0.0
aF0.0
aF0.0
aF0.0
aF0.0
aF222227.7
aF0.0
aF0.0
aF0.0
aF59063.9
asS'k__Bacteria.p__Fusobacteria.c__Fusobacteriia.o__Fusobacteriales.f__Leptotrichiaceae.g__Leptotrichia.s__Leptotrichia_sp_oral_taxon_212'
p75
(lp76
F0.0
aF0.0
aF39149.9
aF0.0
aF14940.8
aF0.0
aF0.0
aF0.0
aF0.0
aF0.0
aF0.0
aF0.0
asS'k__Bacteria.p__Bacteroidetes.c__Bacteroidia'
p77
(lp78
F369395.6
aF30093.7
aF70543.5
aF23745.4
aF11232.4
aF629537.7
aF132472.2
aF104942.1
aF0.0
aF1466.1
aF0.0
aF269180.4
asS'k__Bacteria.p__Fusobacteria.c__Fusobacteriia.o__Fusobacteriales.f__Leptotrichiaceae.g__Leptotrichia.s__Leptotrichia_sp_oral_taxon_215'
p79
(lp80
F0.0
aF0.0
aF0.0
aF16487.7
aF0.0
aF0.0
aF0.0
aF30012.1
aF8241.5
aF851.6
aF0.0
aF0.0
asS'k__Bacteria.p__Spirochaetes.c__Spirochaetia.o__Spirochaetales.f__Spirochaetaceae.g__Treponema.s__Treponema_denticola'
p81
(lp82
F0.0
aF0.0
aF0.0
aF0.0
aF0.0
aF0.0
aF0.0
aF0.0
aF0.0
aF0.0
aF0.0
aF7967.3
asS'k__Bacteria.p__Fusobacteria.c__Fusobacteriia.o__Fusobacteriales.f__Leptotrichiaceae'
p83
(lp84
F0.0
aF0.0
aF39149.9
aF16487.7
aF25112.5
aF0.0
aF0.0
aF30012.1
aF8241.5
aF851.6
aF0.0
aF20691.1
asS'k__Bacteria.p__Firmicutes.c__Erysipelotrichia.o__Erysipelotrichales'
p85
(lp86
F24052.8
aF0.0
aF0.0
aF0.0
aF0.0
aF0.0
aF0.0
aF0.0
aF0.0
aF0.0
aF0.0
aF0.0
asS'k__Bacteria.p__Firmicutes.c__Negativicutes.o__Veillonellales.f__Veillonellaceae.g__Veillonella.s__Veillonella_infantium'
p87
(lp88
F0.0
aF0.0
aF0.0
aF0.0
aF0.0
aF0.0
aF0.0
aF0.0
aF1665.8
aF0.0
aF26669.7
aF0.0
asS'k__Bacteria.p__Proteobacteria.c__Alphaproteobacteria.o__Sphingomonadales.f__Sphingomonadaceae.g__Sphingomonas.s__Sphingomonas_melonis'
p89
(lp90
F0.0
aF417174.20000000007
aF118916.7
aF0.0
aF0.0
aF0.0
aF0.0
aF0.0
aF0.0
aF0.0
aF0.0
aF0.0
asS'k__Bacteria.p__Firmicutes.c__Clostridia'
p91
(lp92
F64048.99999999999
aF0.0
aF0.0
aF0.0
aF0.0
aF4040.1
aF0.0
aF0.0
aF0.0
aF0.0
aF0.0
aF0.0
asS'k__Bacteria.p__Firmicutes.c__Tissierellia.o__Tissierellales.f__Peptoniphilaceae'
p93
(lp94
F14041.3
aF0.0
aF0.0
aF0.0
aF0.0
aF0.0
aF0.0
aF0.0
aF0.0
aF0.0
aF0.0
aF0.0
asS'k__Bacteria.p__Bacteroidetes.c__Flavobacteriia.o__Flavobacteriales.f__Flavobacteriaceae.g__Capnocytophaga'
p95
(lp96
F375274.5
aF0.0
aF0.0
aF0.0
aF333171.70000000007
aF0.0
aF213827.1
aF0.0
aF0.0
aF0.0
aF0.0
aF12409.5
asS'k__Bacteria.p__Actinobacteria.c__Actinobacteria.o__Propionibacteriales'
p97
(lp98
F0.0
aF0.0
aF0.0
aF0.0
aF0.0
aF0.0
aF0.0
aF64279.6
aF0.0
aF0.0
aF0.0
aF0.0
asS'k__Bacteria.p__Proteobacteria.c__Gammaproteobacteria.o__Pasteurellales.f__Pasteurellaceae.g__Aggregatibacter.s__Aggregatibacter_sp_oral_taxon_458'
p99
(lp100
F0.0
aF0.0
aF0.0
aF0.0
aF0.0
aF0.0
aF0.0
aF0.0
aF0.0
aF0.0
aF0.0
aF17780.3
asS'k__Bacteria.p__Bacteroidetes.c__Bacteroidetes_unclassified.o__Bacteroidetes_unclassified'
p101
(lp102
F0.0
aF0.0
aF0.0
aF0.0
aF0.0
aF0.0
aF0.0
aF0.0
aF0.0
aF0.0
aF0.0
aF15368.1
asS'k__Bacteria.p__Fusobacteria.c__Fusobacteriia.o__Fusobacteriales.f__Leptotrichiaceae.g__Leptotrichia.s__Leptotrichia_sp_oral_taxon_225'
p103
(lp104
F0.0
aF0.0
aF0.0
aF0.0
aF2352.1
aF0.0
aF0.0
aF0.0
aF0.0
aF0.0
aF0.0
aF0.0
asS'k__Bacteria.p__Fusobacteria.c__Fusobacteriia.o__Fusobacteriales.f__Leptotrichiaceae.g__Leptotrichia.s__Leptotrichia_buccalis'
p105
(lp106
F0.0
aF0.0
aF0.0
aF0.0
aF0.0
aF0.0
aF0.0
aF0.0
aF0.0
aF0.0
aF0.0
aF20691.1
asS'k__Bacteria.p__Firmicutes.c__Tissierellia.o__Tissierellales'
p107
(lp108
F14041.3
aF0.0
aF0.0
aF0.0
aF0.0
aF0.0
aF0.0
aF0.0
aF0.0
aF0.0
aF0.0
aF0.0
asS'k__Bacteria.p__Actinobacteria'
p109
(lp110
F0.0
aF0.0
aF0.0
aF49935.0
aF0.0
aF0.0
aF0.0
aF329446.9
aF129559.9
aF44837.9
aF401518.4
aF59063.9
asS'k__Bacteria.p__Spirochaetes.c__Spirochaetia.o__Spirochaetales.f__Spirochaetaceae'
p111
(lp112
F0.0
aF0.0
aF0.0
aF0.0
aF0.0
aF0.0
aF0.0
aF0.0
aF0.0
aF0.0
aF0.0
aF7967.3
asS'k__Bacteria.p__Proteobacteria.c__Gammaproteobacteria.o__Pasteurellales.f__Pasteurellaceae.g__Haemophilus.s__Haemophilus_parahaemolyticus'
p113
(lp114
F0.0
aF46542.399999999994
aF0.0
aF74480.6
aF0.0
aF0.0
aF0.0
aF0.0
aF0.0
aF295637.0
aF0.0
aF0.0
asS'k__Bacteria.p__Firmicutes.c__Tissierellia.o__Tissierellales.f__Peptoniphilaceae.g__Parvimonas.s__Parvimonas_micra'
p115
(lp116
F14041.3
aF0.0
aF0.0
aF0.0
aF0.0
aF0.0
aF0.0
aF0.0
aF0.0
aF0.0
aF0.0
aF0.0
asS'k__Bacteria.p__Proteobacteria'
p117
(lp118
F2123.7
aF969906.3
aF374610.3
aF639473.0
aF407914.9
aF59755.5
aF96161.20000000001
aF298663.3
aF441245.9
aF598655.2
aF421652.4
aF191122.4
asS'k__Bacteria.p__Proteobacteria.c__Betaproteobacteria.o__Burkholderiales'
p119
(lp120
F0.0
aF0.0
aF0.0
aF0.0
aF0.0
aF0.0
aF0.0
aF112036.5
aF0.0
aF0.0
aF0.0
aF0.0
asS'k__Bacteria.p__Proteobacteria.c__Betaproteobacteria.o__Burkholderiales.f__Burkholderiaceae.g__Lautropia.s__Lautropia_mirabilis'
p121
(lp122
F0.0
aF0.0
aF0.0
aF0.0
aF0.0
aF0.0
aF0.0
aF112036.5
aF0.0
aF0.0
aF0.0
aF0.0
asS'k__Bacteria.p__Proteobacteria.c__Alphaproteobacteria.o__Sphingomonadales.f__Sphingomonadaceae.g__Sphingomonas'
p123
(lp124
F0.0
aF417174.20000000007
aF118916.7
aF0.0
aF0.0
aF0.0
aF0.0
aF0.0
aF0.0
aF0.0
aF0.0
aF0.0
asS'k__Bacteria.p__Firmicutes.c__Negativicutes.o__Veillonellales.f__Veillonellaceae'
p125
(lp126
F0.0
aF0.0
aF0.0
aF20028.599999999995
aF0.0
aF291231.7
aF0.0
aF88905.7
aF1665.8
aF3947.2
aF105268.3
aF214228.6
asS'k__Bacteria.p__Proteobacteria.c__Betaproteobacteria.o__Neisseriales.f__Neisseriaceae.g__Neisseria.s__Neisseria_subflava'
p127
(lp128
F0.0
aF0.0
aF0.0
aF67946.5
aF0.0
aF0.0
aF54076.6
aF0.0
aF28643.7
aF26639.4
aF0.0
aF0.0
asS'k__Bacteria.p__Firmicutes.c__Bacilli.o__Lactobacillales'
p129
(lp130
F0.0
aF0.0
aF0.0
aF53718.3
aF35851.9
aF6632.3
aF469668.0
aF148029.9
aF198101.6
aF99361.6
aF35658.6
aF85569.1
asS'k__Bacteria.p__Bacteroidetes.c__Bacteroidia.o__Bacteroidales.f__Tannerellaceae.g__Tannerella'
p131
(lp132
F0.0
aF0.0
aF0.0
aF0.0
aF0.0
aF0.0
aF0.0
aF7452.7
aF0.0
aF0.0
aF0.0
aF157586.7
asS'k__Bacteria.p__Firmicutes.c__Bacilli.o__Bacillales.f__Bacillales_unclassified'
p133
(lp134
F39609.1
aF0.0
aF172571.89999999997
aF102122.2
aF0.0
aF0.0
aF41714.7
aF0.0
aF193276.49999999997
aF204953.7
aF29963.1
aF35096.3
asS'k__Bacteria.p__Actinobacteria.c__Actinobacteria.o__Propionibacteriales.f__Propionibacteriaceae'
p135
(lp136
F0.0
aF0.0
aF0.0
aF0.0
aF0.0
aF0.0
aF0.0
aF64279.6
aF0.0
aF0.0
aF0.0
aF0.0
asS'k__Bacteria.p__Firmicutes.c__Negativicutes.o__Veillonellales.f__Veillonellaceae.g__Veillonella.s__Veillonella_dispar'
p137
(lp138
F0.0
aF0.0
aF0.0
aF20028.599999999995
aF0.0
aF0.0
aF0.0
aF0.0
aF0.0
aF3947.2
aF64943.7
aF0.0
asS'k__Bacteria.p__Firmicutes.c__Clostridia.o__Clostridiales.f__Peptostreptococcaceae.g__Filifactor.s__Filifactor_alocis'
p139
(lp140
F64048.99999999999
aF0.0
aF0.0
aF0.0
aF0.0
aF0.0
aF0.0
aF0.0
aF0.0
aF0.0
aF0.0
aF0.0
asS'k__Bacteria.p__Proteobacteria.c__Betaproteobacteria.o__Neisseriales.f__Neisseriaceae.g__Neisseria.s__Neisseria_sp_oral_taxon_014'
p141
(lp142
F0.0
aF0.0
aF0.0
aF0.0
aF0.0
aF0.0
aF0.0
aF0.0
aF0.0
aF0.0
aF0.0
aF47566.3
asS'k__Bacteria.p__Fusobacteria'
p143
(lp144
F111453.9
aF0.0
aF382274.3
aF110977.6
aF211829.1
aF8802.6
aF46156.8
aF30012.1
aF36150.4
aF46778.3
aF5939.2
aF102016.8
asS'k__Bacteria.p__Bacteroidetes.c__Bacteroidia.o__Bacteroidales.f__Porphyromonadaceae.g__Porphyromonas'
p145
(lp146
F0.0
aF0.0
aF0.0
aF23745.4
aF11232.4
aF0.0
aF0.0
aF0.0
aF0.0
aF1466.1
aF0.0
aF39934.7
asS'k__Bacteria.p__Bacteroidetes.c__Bacteroidia.o__Bacteroidales.f__Tannerellaceae.g__Tannerella.s__Tannerella_sp_oral_taxon_HOT_286'
p147
(lp148
F0.0
aF0.0
aF0.0
aF0.0
aF0.0
aF0.0
aF0.0
aF7452.7
aF0.0
aF0.0
aF0.0
aF157586.7
asS'k__Bacteria.p__Firmicutes.c__Bacilli.o__Bacillales.f__Bacillales_unclassified.g__Gemella'
p149
(lp150
F39609.1
aF0.0
aF172571.89999999997
aF102122.2
aF0.0
aF0.0
aF41714.7
aF0.0
aF193276.49999999997
aF204953.7
aF29963.1
aF35096.3
asS'k__Bacteria.p__Spirochaetes'
p151
(lp152
F0.0
aF0.0
aF0.0
aF0.0
aF0.0
aF0.0
aF0.0
aF0.0
aF0.0
aF0.0
aF0.0
aF7967.3
asS'k__Bacteria.p__Firmicutes'
p153
(lp154
F141752.2
aF0.0
aF172571.89999999997
aF175869.0
aF35851.9
aF301904.1
aF511382.7
aF236935.6
aF393043.80000000005
aF308262.5
aF170890.00000000003
aF342871.49999999994
asS'k__Bacteria.p__Actinobacteria.c__Actinobacteria.o__Actinomycetales.f__Actinomycetaceae.g__Actinomyces.s__Actinomyces_oris'
p155
(lp156
F0.0
aF0.0
aF0.0
aF0.0
aF0.0
aF0.0
aF0.0
aF34797.5
aF0.0
aF0.0
aF0.0
aF0.0
asS'k__Bacteria.p__Proteobacteria.c__Gammaproteobacteria.o__Pasteurellales'
p157
(lp158
F0.0
aF552732.1
aF45912.7
aF227338.2
aF386791.0999999999
aF31418.9
aF35137.6
aF186626.89999999997
aF47508.0
aF357121.8
aF172790.80000000002
aF121517.9
asS'k__Bacteria.p__Proteobacteria.c__Gammaproteobacteria.o__Pasteurellales.f__Pasteurellaceae.g__Haemophilus.s__Haemophilus_sputorum'
p159
(lp160
F0.0
aF506189.70000000007
aF0.0
aF5677.1
aF0.0
aF0.0
aF0.0
aF0.0
aF0.0
aF28699.2
aF0.0
aF0.0
asS'k__Bacteria.p__Firmicutes.c__Negativicutes.o__Veillonellales.f__Veillonellaceae.g__Veillonella.s__Veillonella_rogosae'
p161
(lp162
F0.0
aF0.0
aF0.0
aF0.0
aF0.0
aF0.0
aF0.0
aF0.0
aF0.0
aF0.0
aF8853.4
aF0.0
asS'k__Bacteria.p__Proteobacteria.c__Betaproteobacteria'
p163
(lp164
F0.0
aF0.0
aF209780.8
aF412134.8
aF0.0
aF0.0
aF61023.7
aF112036.5
aF393737.9
aF241533.4
aF248861.6
aF47566.3
asS'k__Bacteria.p__Spirochaetes.c__Spirochaetia.o__Spirochaetales.f__Spirochaetaceae.g__Treponema'
p165
(lp166
F0.0
aF0.0
aF0.0
aF0.0
aF0.0
aF0.0
aF0.0
aF0.0
aF0.0
aF0.0
aF0.0
aF7967.3
asS'k__Bacteria.p__Spirochaetes.c__Spirochaetia'
p167
(lp168
F0.0
aF0.0
aF0.0
aF0.0
aF0.0
aF0.0
aF0.0
aF0.0
aF0.0
aF0.0
aF0.0
aF7967.3
asS'k__Bacteria'
p169
(lp170
F1000000.0
aF1000000.0
aF1000000.0
aF1000000.0
aF1000000.0
aF1000000.0
aF1000000.0
aF1000000.0
aF1000000.0
aF1000000.0
aF1000000.0
aF1000000.0
asS'k__Bacteria.p__Firmicutes.c__Bacilli.o__Bacillales'
p171
(lp172
F39609.1
aF0.0
aF172571.89999999997
aF102122.2
aF0.0
aF0.0
aF41714.7
aF0.0
aF193276.49999999997
aF204953.7
aF29963.1
aF35096.3
asS'k__Bacteria.p__Bacteroidetes.c__Flavobacteriia'
p173
(lp174
F375274.5
aF0.0
aF0.0
aF0.0
aF333171.70000000007
aF0.0
aF213827.1
aF0.0
aF0.0
aF0.0
aF0.0
aF12409.5
asS'k__Bacteria.p__Firmicutes.c__Clostridia.o__Clostridiales.f__Peptostreptococcaceae'
p175
(lp176
F64048.99999999999
aF0.0
aF0.0
aF0.0
aF0.0
aF0.0
aF0.0
aF0.0
aF0.0
aF0.0
aF0.0
aF0.0
asS'k__Bacteria.p__Firmicutes.c__Negativicutes'
p177
(lp178
F0.0
aF0.0
aF0.0
aF20028.599999999995
aF0.0
aF291231.7
aF0.0
aF88905.7
aF1665.8
aF3947.2
aF105268.3
aF222206.0
asS'k__Bacteria.p__Bacteroidetes.c__Bacteroidia.o__Bacteroidales.f__Porphyromonadaceae'
p179
(lp180
F0.0
aF0.0
aF0.0
aF23745.4
aF11232.4
aF0.0
aF0.0
aF0.0
aF0.0
aF1466.1
aF0.0
aF39934.7
asS'k__Bacteria.p__Bacteroidetes.c__Bacteroidetes_unclassified.o__Bacteroidetes_unclassified.f__Bacteroidetes_unclassified'
p181
(lp182
F0.0
aF0.0
aF0.0
aF0.0
aF0.0
aF0.0
aF0.0
aF0.0
aF0.0
aF0.0
aF0.0
aF15368.1
asS'k__Bacteria.p__Firmicutes.c__Bacilli.o__Bacillales.f__Bacillales_unclassified.g__Gemella.s__Gemella_sanguinis'
p183
(lp184
F0.0
aF0.0
aF172571.89999999997
aF0.0
aF0.0
aF0.0
aF0.0
aF0.0
aF193276.49999999997
aF0.0
aF29963.1
aF0.0
asS'k__Bacteria.p__Fusobacteria.c__Fusobacteriia.o__Fusobacteriales'
p185
(lp186
F111453.9
aF0.0
aF382274.3
aF110977.6
aF211829.1
aF8802.6
aF46156.8
aF30012.1
aF36150.4
aF46778.3
aF5939.2
aF102016.8
asS'k__Bacteria.p__Proteobacteria.c__Epsilonproteobacteria.o__Campylobacterales.f__Campylobacteraceae.g__Campylobacter.s__Campylobacter_showae'
p187
(lp188
F2123.7
aF0.0
aF0.0
aF0.0
aF21123.8
aF0.0
aF0.0
aF0.0
aF0.0
aF0.0
aF0.0
aF0.0
asS'k__Bacteria.p__Bacteroidetes.c__Flavobacteriia.o__Flavobacteriales.f__Flavobacteriaceae.g__Capnocytophaga.s__Capnocytophaga_sputigena'
p189
(lp190
F312653.5
aF0.0
aF0.0
aF0.0
aF0.0
aF0.0
aF132251.3
aF0.0
aF0.0
aF0.0
aF0.0
aF0.0
asS'k__Bacteria.p__Bacteroidetes.c__Flavobacteriia.o__Flavobacteriales.f__Flavobacteriaceae.g__Capnocytophaga.s__Capnocytophaga_granulosa'
p191
(lp192
F0.0
aF0.0
aF0.0
aF0.0
aF0.0
aF0.0
aF0.0
aF0.0
aF0.0
aF0.0
aF0.0
aF799.1000000000001
asS'k__Bacteria.p__Firmicutes.c__Negativicutes.o__Veillonellales.f__Veillonellaceae.g__Veillonella.s__Veillonella_parvula'
p193
(lp194
F0.0
aF0.0
aF0.0
aF0.0
aF0.0
aF0.0
aF0.0
aF88905.7
aF0.0
aF0.0
aF0.0
aF214228.6
asS'k__Bacteria.p__Proteobacteria.c__Betaproteobacteria.o__Neisseriales.f__Neisseriaceae.g__Neisseria.s__Neisseria_sicca'
p195
(lp196
F0.0
aF0.0
aF0.0
aF0.0
aF0.0
aF0.0
aF6947.1
aF0.0
aF0.0
aF0.0
aF0.0
aF0.0
asS'k__Bacteria.p__Actinobacteria.c__Actinobacteria.o__Actinomycetales.f__Actinomycetaceae.g__Actinomyces.s__Actinomyces_odontolyticus'
p197
(lp198
F0.0
aF0.0
aF0.0
aF0.0
aF0.0
aF0.0
aF0.0
aF0.0
aF0.0
aF0.0
aF2440.2
aF0.0
asS'k__Bacteria.p__Fusobacteria.c__Fusobacteriia.o__Fusobacteriales.f__Fusobacteriaceae'
p199
(lp200
F111453.9
aF0.0
aF343124.4
aF94490.0
aF186716.6
aF8802.6
aF46156.8
aF0.0
aF27909.0
aF45926.6
aF5939.2
aF81325.7
asS'k__Bacteria.p__Actinobacteria.c__Actinobacteria.o__Micrococcales'
p201
(lp202
F0.0
aF0.0
aF0.0
aF49935.0
aF0.0
aF0.0
aF0.0
aF8142.099999999999
aF129559.9
aF44837.9
aF399078.2
aF0.0
asS'k__Bacteria.p__Spirochaetes.c__Spirochaetia.o__Spirochaetales'
p203
(lp204
F0.0
aF0.0
aF0.0
aF0.0
aF0.0
aF0.0
aF0.0
aF0.0
aF0.0
aF0.0
aF0.0
aF7967.3
asS'k__Bacteria.p__Bacteroidetes.c__Bacteroidia.o__Bacteroidales.f__Prevotellaceae'
p205
(lp206
F369395.6
aF30093.7
aF70543.5
aF0.0
aF0.0
aF629537.7
aF132472.2
aF97489.4
aF0.0
aF0.0
aF0.0
aF71659.0
asS'k__Bacteria.p__Proteobacteria.c__Epsilonproteobacteria'
p207
(lp208
F2123.7
aF0.0
aF0.0
aF0.0
aF21123.8
aF28336.600000000002
aF0.0
aF0.0
aF0.0
aF0.0
aF0.0
aF22038.199999999997
asS'k__Bacteria.p__Firmicutes.c__Erysipelotrichia.o__Erysipelotrichales.f__Erysipelotrichaceae.g__Solobacterium'
p209
(lp210
F24052.8
aF0.0
aF0.0
aF0.0
aF0.0
aF0.0
aF0.0
aF0.0
aF0.0
aF0.0
aF0.0
aF0.0
asS'k__Bacteria.p__Firmicutes.c__Erysipelotrichia.o__Erysipelotrichales.f__Erysipelotrichaceae'
p211
(lp212
F24052.8
aF0.0
aF0.0
aF0.0
aF0.0
aF0.0
aF0.0
aF0.0
aF0.0
aF0.0
aF0.0
aF0.0
asS'k__Bacteria.p__Firmicutes.c__Negativicutes.o__Selenomonadales'
p213
(lp214
F0.0
aF0.0
aF0.0
aF0.0
aF0.0
aF0.0
aF0.0
aF0.0
aF0.0
aF0.0
aF0.0
aF7977.4
asS'k__Bacteria.p__Proteobacteria.c__Alphaproteobacteria.o__Sphingomonadales'
p215
(lp216
F0.0
aF417174.20000000007
aF118916.7
aF0.0
aF0.0
aF0.0
aF0.0
aF0.0
aF0.0
aF0.0
aF0.0
aF0.0
asS'k__Bacteria.p__Bacteroidetes.c__Bacteroidia.o__Bacteroidales.f__Porphyromonadaceae.g__Porphyromonas.s__Porphyromonas_somerae'
p217
(lp218
F0.0
aF0.0
aF0.0
aF23745.4
aF11232.4
aF0.0
aF0.0
aF0.0
aF0.0
aF1466.1
aF0.0
aF0.0
asS'k__Bacteria.p__Actinobacteria.c__Actinobacteria.o__Actinomycetales'
p219
(lp220
F0.0
aF0.0
aF0.0
aF0.0
aF0.0
aF0.0
aF0.0
aF34797.5
aF0.0
aF0.0
aF2440.2
aF0.0
asS'k__Bacteria.p__Firmicutes.c__Bacilli'
p221
(lp222
F39609.1
aF0.0
aF172571.89999999997
aF155840.5
aF35851.9
aF6632.3
aF511382.7
aF148029.9
aF391378.0
aF304315.2
aF65621.7
aF120665.4
asS'k__Bacteria.p__Bacteroidetes.c__Flavobacteriia.o__Flavobacteriales'
p223
(lp224
F375274.5
aF0.0
aF0.0
aF0.0
aF333171.70000000007
aF0.0
aF213827.1
aF0.0
aF0.0
aF0.0
aF0.0
aF12409.5
asS'k__Bacteria.p__Bacteroidetes.c__Bacteroidetes_unclassified.o__Bacteroidetes_unclassified.f__Bacteroidetes_unclassified.g__Bacteroidetes_unclassified.s__Bacteroidetes_oral_taxon_274'
p225
(lp226
F0.0
aF0.0
aF0.0
aF0.0
aF0.0
aF0.0
aF0.0
aF0.0
aF0.0
aF0.0
aF0.0
aF15368.1
asS'k__Bacteria.p__Bacteroidetes.c__Bacteroidia.o__Bacteroidales.f__Tannerellaceae'
p227
(lp228
F0.0
aF0.0
aF0.0
aF0.0
aF0.0
aF0.0
aF0.0
aF7452.7
aF0.0
aF0.0
aF0.0
aF157586.7
asS'k__Bacteria.p__Actinobacteria.c__Actinobacteria.o__Corynebacteriales.f__Corynebacteriaceae.g__Corynebacterium.s__Corynebacterium_matruchotii'
p229
(lp230
F0.0
aF0.0
aF0.0
aF0.0
aF0.0
aF0.0
aF0.0
aF222227.7
aF0.0
aF0.0
aF0.0
aF59063.9
asS'k__Bacteria.p__Bacteroidetes.c__Bacteroidia.o__Bacteroidales.f__Prevotellaceae.g__Prevotella'
p231
(lp232
F227647.0
aF30093.7
aF70543.5
aF0.0
aF0.0
aF629537.7
aF113721.8
aF97489.4
aF0.0
aF0.0
aF0.0
aF71659.0
asS'k__Bacteria.p__Proteobacteria.c__Epsilonproteobacteria.o__Campylobacterales.f__Campylobacteraceae.g__Campylobacter.s__Campylobacter_concisus'
p233
(lp234
F0.0
aF0.0
aF0.0
aF0.0
aF0.0
aF28336.600000000002
aF0.0
aF0.0
aF0.0
aF0.0
aF0.0
aF0.0
asS'k__Bacteria.p__Bacteroidetes.c__Bacteroidia.o__Bacteroidales.f__Prevotellaceae.g__Prevotella.s__Prevotella_melaninogenica'
p235
(lp236
F0.0
aF30093.7
aF70543.5
aF0.0
aF0.0
aF607669.8
aF90533.09999999999
aF97489.4
aF0.0
aF0.0
aF0.0
aF0.0
asS'k__Bacteria.p__Bacteroidetes.c__Bacteroidia.o__Bacteroidales.f__Prevotellaceae.g__Prevotella.s__Prevotella_oris'
p237
(lp238
F0.0
aF0.0
aF0.0
aF0.0
aF0.0
aF0.0
aF0.0
aF0.0
aF0.0
aF0.0
aF0.0
aF48816.3
asS'k__Bacteria.p__Proteobacteria.c__Epsilonproteobacteria.o__Campylobacterales'
p239
(lp240
F2123.7
aF0.0
aF0.0
aF0.0
aF21123.8
aF28336.600000000002
aF0.0
aF0.0
aF0.0
aF0.0
aF0.0
aF22038.199999999997
asS'k__Bacteria.p__Proteobacteria.c__Epsilonproteobacteria.o__Campylobacterales.f__Campylobacteraceae.g__Campylobacter'
p241
(lp242
F2123.7
aF0.0
aF0.0
aF0.0
aF21123.8
aF28336.600000000002
aF0.0
aF0.0
aF0.0
aF0.0
aF0.0
aF22038.199999999997
asS'k__Bacteria.p__Firmicutes.c__Negativicutes.o__Veillonellales.f__Veillonellaceae.g__Veillonella.s__Veillonella_atypica'
p243
(lp244
F0.0
aF0.0
aF0.0
aF0.0
aF0.0
aF291231.7
aF0.0
aF0.0
aF0.0
aF0.0
aF0.0
aF0.0
asS'k__Bacteria.p__Actinobacteria.c__Actinobacteria.o__Propionibacteriales.f__Propionibacteriaceae.g__Pseudopropionibacterium'
p245
(lp246
F0.0
aF0.0
aF0.0
aF0.0
aF0.0
aF0.0
aF0.0
aF64279.6
aF0.0
aF0.0
aF0.0
aF0.0
asS'k__Bacteria.p__Bacteroidetes.c__Bacteroidia.o__Bacteroidales.f__Prevotellaceae.g__Alloprevotella.s__Alloprevotella_tannerae'
p247
(lp248
F66722.3
aF0.0
aF0.0
aF0.0
aF0.0
aF0.0
aF18750.4
aF0.0
aF0.0
aF0.0
aF0.0
aF0.0
asS'k__Bacteria.p__Actinobacteria.c__Actinobacteria.o__Corynebacteriales'
p249
(lp250
F0.0
aF0.0
aF0.0
aF0.0
aF0.0
aF0.0
aF0.0
aF222227.7
aF0.0
aF0.0
aF0.0
aF59063.9
asS'k__Bacteria.p__Proteobacteria.c__Betaproteobacteria.o__Neisseriales.f__Neisseriaceae.g__Neisseria.s__Neisseria_perflava'
p251
(lp252
F0.0
aF0.0
aF0.0
aF0.0
aF0.0
aF0.0
aF0.0
aF0.0
aF0.0
aF0.0
aF134446.0
aF0.0
asS'k__Bacteria.p__Bacteroidetes.c__Bacteroidetes_unclassified'
p253
(lp254
F0.0
aF0.0
aF0.0
aF0.0
aF0.0
aF0.0
aF0.0
aF0.0
aF0.0
aF0.0
aF0.0
aF15368.1
asS'k__Bacteria.p__Bacteroidetes.c__Bacteroidia.o__Bacteroidales.f__Prevotellaceae.g__Alloprevotella.s__Prevotella_sp_oral_taxon_473'
p255
(lp256
F75026.3
aF0.0
aF0.0
aF0.0
aF0.0
aF0.0
aF0.0
aF0.0
aF0.0
aF0.0
aF0.0
aF0.0
asS'k__Bacteria.p__Firmicutes.c__Bacilli.o__Lactobacillales.f__Streptococcaceae.g__Streptococcus'
p257
(lp258
F0.0
aF0.0
aF0.0
aF53718.3
aF0.0
aF6632.3
aF469668.0
aF148029.9
aF198101.6
aF99361.6
aF35658.6
aF85569.1
asS'k__Bacteria.p__Fusobacteria.c__Fusobacteriia.o__Fusobacteriales.f__Fusobacteriaceae.g__Fusobacterium'
p259
(lp260
F111453.9
aF0.0
aF343124.4
aF94490.0
aF186716.6
aF8802.6
aF46156.8
aF0.0
aF27909.0
aF45926.6
aF5939.2
aF81325.7
asS'k__Bacteria.p__Bacteroidetes.c__Bacteroidia.o__Bacteroidales.f__Prevotellaceae.g__Prevotella.s__Prevotella_oulorum'
p261
(lp262
F0.0
aF0.0
aF0.0
aF0.0
aF0.0
aF0.0
aF0.0
aF0.0
aF0.0
aF0.0
aF0.0
aF11874.7
asS'k__Bacteria.p__Proteobacteria.c__Betaproteobacteria.o__Neisseriales.f__Neisseriaceae'
p263
(lp264
F0.0
aF0.0
aF209780.8
aF412134.8
aF0.0
aF0.0
aF61023.7
aF0.0
aF393737.9
aF241533.4
aF248861.6
aF47566.3
asS'k__Bacteria.p__Firmicutes.c__Negativicutes.o__Veillonellales'
p265
(lp266
F0.0
aF0.0
aF0.0
aF20028.599999999995
aF0.0
aF291231.7
aF0.0
aF88905.7
aF1665.8
aF3947.2
aF105268.3
aF214228.6
asS'k__Bacteria.p__Firmicutes.c__Bacilli.o__Lactobacillales.f__Streptococcaceae.g__Streptococcus.s__Streptococcus_australis'
p267
(lp268
F0.0
aF0.0
aF0.0
aF0.0
aF0.0
aF0.0
aF0.0
aF0.0
aF3164.3000000000006
aF0.0
aF0.0
aF0.0
asS'k__Bacteria.p__Proteobacteria.c__Alphaproteobacteria'
p269
(lp270
F0.0
aF417174.20000000007
aF118916.7
aF0.0
aF0.0
aF0.0
aF0.0
aF0.0
aF0.0
aF0.0
aF0.0
aF0.0
asS'k__Bacteria.p__Actinobacteria.c__Actinobacteria.o__Corynebacteriales.f__Corynebacteriaceae.g__Corynebacterium'
p271
(lp272
F0.0
aF0.0
aF0.0
aF0.0
aF0.0
aF0.0
aF0.0
aF222227.7
aF0.0
aF0.0
aF0.0
aF59063.9
asS'k__Bacteria.p__Firmicutes.c__Negativicutes.o__Selenomonadales.f__Selenomonadaceae.g__Selenomonas.s__Selenomonas_noxia'
p273
(lp274
F0.0
aF0.0
aF0.0
aF0.0
aF0.0
aF0.0
aF0.0
aF0.0
aF0.0
aF0.0
aF0.0
aF7977.4
asS'k__Bacteria.p__Bacteroidetes'
p275
(lp276
F744670.1
aF30093.7
aF70543.5
aF23745.4
aF344404.1
aF629537.7
aF346299.2
aF104942.1
aF0.0
aF1466.1
aF0.0
aF296958.0
asS'k__Bacteria.p__Proteobacteria.c__Epsilonproteobacteria.o__Campylobacterales.f__Campylobacteraceae.g__Campylobacter.s__Campylobacter_gracilis'
p277
(lp278
F0.0
aF0.0
aF0.0
aF0.0
aF0.0
aF0.0
aF0.0
aF0.0
aF0.0
aF0.0
aF0.0
aF22038.199999999997
asS'k__Bacteria.p__Proteobacteria.c__Gammaproteobacteria.o__Pasteurellales.f__Pasteurellaceae.g__Haemophilus.s__Haemophilus_sp_HMSC71H05'
p279
(lp280
F0.0
aF0.0
aF0.0
aF112704.9
aF0.0
aF0.0
aF0.0
aF0.0
aF0.0
aF0.0
aF0.0
aF0.0
asS'k__Bacteria.p__Firmicutes.c__Negativicutes.o__Veillonellales.f__Veillonellaceae.g__Veillonella.s__Veillonella_sp_T11011_6'
p281
(lp282
F0.0
aF0.0
aF0.0
aF0.0
aF0.0
aF0.0
aF0.0
aF0.0
aF0.0
aF0.0
aF4801.5
aF0.0
asS'k__Bacteria.p__Firmicutes.c__Bacilli.o__Lactobacillales.f__Streptococcaceae.g__Streptococcus.s__Streptococcus_gordonii'
p283
(lp284
F0.0
aF0.0
aF0.0
aF0.0
aF0.0
aF0.0
aF0.0
aF148029.9
aF0.0
aF0.0
aF0.0
aF0.0
asS'k__Bacteria.p__Proteobacteria.c__Betaproteobacteria.o__Neisseriales'
p285
(lp286
F0.0
aF0.0
aF209780.8
aF412134.8
aF0.0
aF0.0
aF61023.7
aF0.0
aF393737.9
aF241533.4
aF248861.6
aF47566.3
asS'k__Bacteria.p__Proteobacteria.c__Gammaproteobacteria'
p287
(lp288
F0.0
aF552732.1
aF45912.7
aF227338.2
aF386791.0999999999
aF31418.9
aF35137.6
aF186626.89999999997
aF47508.0
aF357121.8
aF172790.80000000002
aF121517.9
asS'k__Bacteria.p__Firmicutes.c__Bacilli.o__Lactobacillales.f__Carnobacteriaceae'
p289
(lp290
F0.0
aF0.0
aF0.0
aF0.0
aF35851.9
aF0.0
aF0.0
aF0.0
aF0.0
aF0.0
aF0.0
aF0.0
asS'k__Bacteria.p__Firmicutes.c__Clostridia.o__Clostridiales.f__Peptostreptococcaceae.g__Filifactor'
p291
(lp292
F64048.99999999999
aF0.0
aF0.0
aF0.0
aF0.0
aF0.0
aF0.0
aF0.0
aF0.0
aF0.0
aF0.0
aF0.0
asS'k__Bacteria.p__Bacteroidetes.c__Bacteroidia.o__Bacteroidales.f__Prevotellaceae.g__Prevotella.s__Prevotella_nigrescens'
p293
(lp294
F227647.0
aF0.0
aF0.0
aF0.0
aF0.0
aF0.0
aF0.0
aF0.0
aF0.0
aF0.0
aF0.0
aF10968.1
asS'k__Bacteria.p__Bacteroidetes.c__Bacteroidia.o__Bacteroidales.f__Prevotellaceae.g__Prevotella.s__Prevotella_salivae'
p295
(lp296
F0.0
aF0.0
aF0.0
aF0.0
aF0.0
aF9594.7
aF23188.7
aF0.0
aF0.0
aF0.0
aF0.0
aF0.0
asS'k__Bacteria.p__Firmicutes.c__Negativicutes.o__Selenomonadales.f__Selenomonadaceae.g__Selenomonas'
p297
(lp298
F0.0
aF0.0
aF0.0
aF0.0
aF0.0
aF0.0
aF0.0
aF0.0
aF0.0
aF0.0
aF0.0
aF7977.4
asS'k__Bacteria.p__Proteobacteria.c__Gammaproteobacteria.o__Pasteurellales.f__Pasteurellaceae.g__Haemophilus.s__Haemophilus_haemolyticus'
p299
(lp300
F0.0
aF0.0
aF0.0
aF0.0
aF0.0
aF0.0
aF0.0
aF0.0
aF0.0
aF0.0
aF0.0
aF79234.4
asS'k__Bacteria.p__Proteobacteria.c__Gammaproteobacteria.o__Pasteurellales.f__Pasteurellaceae'
p301
(lp302
F0.0
aF552732.1
aF45912.7
aF227338.2
aF386791.0999999999
aF31418.9
aF35137.6
aF186626.89999999997
aF47508.0
aF357121.8
aF172790.80000000002
aF121517.9
asS'k__Bacteria.p__Proteobacteria.c__Betaproteobacteria.o__Burkholderiales.f__Burkholderiaceae'
p303
(lp304
F0.0
aF0.0
aF0.0
aF0.0
aF0.0
aF0.0
aF0.0
aF112036.5
aF0.0
aF0.0
aF0.0
aF0.0
asS'k__Bacteria.p__Firmicutes.c__Clostridia.o__Clostridiales.f__Clostridiales_Family_XIII_Incertae_Sedis.g__Clostridiales_Family_XIII_Incertae_Sedis_unclassified.s__Eubacterium_sulci'
p305
(lp306
F0.0
aF0.0
aF0.0
aF0.0
aF0.0
aF4040.1
aF0.0
aF0.0
aF0.0
aF0.0
aF0.0
aF0.0
asS'k__Bacteria.p__Firmicutes.c__Tissierellia.o__Tissierellales.f__Peptoniphilaceae.g__Parvimonas'
p307
(lp308
F14041.3
aF0.0
aF0.0
aF0.0
aF0.0
aF0.0
aF0.0
aF0.0
aF0.0
aF0.0
aF0.0
aF0.0
asS'k__Bacteria.p__Proteobacteria.c__Alphaproteobacteria.o__Sphingomonadales.f__Sphingomonadaceae'
p309
(lp310
F0.0
aF417174.20000000007
aF118916.7
aF0.0
aF0.0
aF0.0
aF0.0
aF0.0
aF0.0
aF0.0
aF0.0
aF0.0
asS'k__Bacteria.p__Firmicutes.c__Bacilli.o__Lactobacillales.f__Streptococcaceae.g__Streptococcus.s__Streptococcus_sp_F0442'
p311
(lp312
F0.0
aF0.0
aF0.0
aF0.0
aF0.0
aF0.0
aF0.0
aF0.0
aF2229.9
aF0.0
aF0.0
aF0.0
asS'k__Bacteria.p__Actinobacteria.c__Actinobacteria.o__Micrococcales.f__Micrococcaceae.g__Rothia.s__Rothia_dentocariosa'
p313
(lp314
F0.0
aF0.0
aF0.0
aF0.0
aF0.0
aF0.0
aF0.0
aF8142.099999999999
aF0.0
aF0.0
aF0.0
aF0.0
asS'k__Bacteria.p__Actinobacteria.c__Actinobacteria'
p315
(lp316
F0.0
aF0.0
aF0.0
aF49935.0
aF0.0
aF0.0
aF0.0
aF329446.9
aF129559.9
aF44837.9
aF401518.4
aF59063.9
asS'k__Bacteria.p__Firmicutes.c__Negativicutes.o__Selenomonadales.f__Selenomonadaceae'
p317
(lp318
F0.0
aF0.0
aF0.0
aF0.0
aF0.0
aF0.0
aF0.0
aF0.0
aF0.0
aF0.0
aF0.0
aF7977.4
asS'k__Bacteria.p__Firmicutes.c__Bacilli.o__Lactobacillales.f__Streptococcaceae.g__Streptococcus.s__Streptococcus_infantis'
p319
(lp320
F0.0
aF0.0
aF0.0
aF0.0
aF0.0
aF0.0
aF0.0
aF0.0
aF162542.4
aF0.0
aF6446.7
aF0.0
asS'k__Bacteria.p__Actinobacteria.c__Actinobacteria.o__Micrococcales.f__Micrococcaceae.g__Rothia'
p321
(lp322
F0.0
aF0.0
aF0.0
aF49935.0
aF0.0
aF0.0
aF0.0
aF8142.099999999999
aF129559.9
aF44837.9
aF399078.2
aF0.0
asS'k__Bacteria.p__Firmicutes.c__Bacilli.o__Lactobacillales.f__Carnobacteriaceae.g__Granulicatella.s__Granulicatella_elegans'
p323
(lp324
F0.0
aF0.0
aF0.0
aF0.0
aF35851.9
aF0.0
aF0.0
aF0.0
aF0.0
aF0.0
aF0.0
aF0.0
asS'k__Bacteria.p__Bacteroidetes.c__Flavobacteriia.o__Flavobacteriales.f__Flavobacteriaceae.g__Capnocytophaga.s__Capnocytophaga_leadbetteri'
p325
(lp326
F62621.0
aF0.0
aF0.0
aF0.0
aF333171.70000000007
aF0.0
aF81575.80000000002
aF0.0
aF0.0
aF0.0
aF0.0
aF11610.400000000001
asS'k__Bacteria.p__Firmicutes.c__Bacilli.o__Lactobacillales.f__Streptococcaceae.g__Streptococcus.s__Streptococcus_oralis'
p327
(lp328
F0.0
aF0.0
aF0.0
aF0.0
aF0.0
aF0.0
aF144749.0
aF0.0
aF0.0
aF0.0
aF0.0
aF0.0
asS'k__Bacteria.p__Proteobacteria.c__Epsilonproteobacteria.o__Campylobacterales.f__Campylobacteraceae'
p329
(lp330
F2123.7
aF0.0
aF0.0
aF0.0
aF21123.8
aF28336.600000000002
aF0.0
aF0.0
aF0.0
aF0.0
aF0.0
aF22038.199999999997
asS'k__Bacteria.p__Fusobacteria.c__Fusobacteriia.o__Fusobacteriales.f__Fusobacteriaceae.g__Fusobacterium.s__Fusobacterium_periodonticum'
p331
(lp332
F0.0
aF0.0
aF169626.1
aF94490.0
aF0.0
aF0.0
aF32000.9
aF0.0
aF27909.0
aF45926.6
aF5939.2
aF0.0
asS'k__Bacteria.p__Firmicutes.c__Erysipelotrichia'
p333
(lp334
F24052.8
aF0.0
aF0.0
aF0.0
aF0.0
aF0.0
aF0.0
aF0.0
aF0.0
aF0.0
aF0.0
aF0.0
asS'k__Bacteria.p__Fusobacteria.c__Fusobacteriia.o__Fusobacteriales.f__Leptotrichiaceae.g__Leptotrichia.s__Leptotrichia_hofstadii'
p335
(lp336
F0.0
aF0.0
aF0.0
aF0.0
aF7819.599999999999
aF0.0
aF0.0
aF0.0
aF0.0
aF0.0
aF0.0
aF0.0
asS'k__Bacteria.p__Firmicutes.c__Bacilli.o__Lactobacillales.f__Streptococcaceae.g__Streptococcus.s__Streptococcus_mitis'
p337
(lp338
F0.0
aF0.0
aF0.0
aF21671.2
aF0.0
aF1044.7
aF324919.0
aF0.0
aF0.0
aF71985.1
aF19338.7
aF85569.1
asS'k__Bacteria.p__Proteobacteria.c__Gammaproteobacteria.o__Pasteurellales.f__Pasteurellaceae.g__Haemophilus'
p339
(lp340
F0.0
aF552732.1
aF45912.7
aF227338.2
aF0.0
aF31418.9
aF0.0
aF186626.89999999997
aF47508.0
aF357121.8
aF172790.80000000002
aF103737.6
asS'k__Bacteria.p__Bacteroidetes.c__Bacteroidetes_unclassified.o__Bacteroidetes_unclassified.f__Bacteroidetes_unclassified.g__Bacteroidetes_unclassified'
p341
(lp342
F0.0
aF0.0
aF0.0
aF0.0
aF0.0
aF0.0
aF0.0
aF0.0
aF0.0
aF0.0
aF0.0
aF15368.1
asS'k__Bacteria.p__Actinobacteria.c__Actinobacteria.o__Propionibacteriales.f__Propionibacteriaceae.g__Pseudopropionibacterium.s__Pseudopropionibacterium_propionicum'
p343
(lp344
F0.0
aF0.0
aF0.0
aF0.0
aF0.0
aF0.0
aF0.0
aF64279.6
aF0.0
aF0.0
aF0.0
aF0.0
asS'k__Bacteria.p__Bacteroidetes.c__Bacteroidia.o__Bacteroidales.f__Porphyromonadaceae.g__Porphyromonas.s__Porphyromonas_endodontalis'
p345
(lp346
F0.0
aF0.0
aF0.0
aF0.0
aF0.0
aF0.0
aF0.0
aF0.0
aF0.0
aF0.0
aF0.0
aF39934.7
assS'subclass_sl'
p347
(dp348
g10
(I0
I6
tp349
sg12
(I6
I12
tp350
ssS'norm'
p351
F1000000.0
sS'cls'
p352
(dp353
S'class'
p354
(g3
g3
g3
g3
g3
g3
g5
g5
g5
g5
g5
g5
tp355
sS'subclass'
p356
(lp357
S'C_subcl'
p358
aS'C_subcl'
p359
aS'C_subcl'
p360
aS'C_subcl'
p361
aS'C_subcl'
p362
ag10
aS'N_subcl'
p363
aS'N_subcl'
p364
aS'N_subcl'
p365
aS'N_subcl'
p366
aS'N_subcl'
p367
ag12
ass.